; Function Attrs: mustprogress nofree norecurse nosync nounwind willreturn memory(write, argmem: readwrite, inaccessiblemem: none) uwtable
define void @_ZN5boost4urls3url10clear_implEv(ptr nocapture noundef nonnull align 8 dereferenceable(216) %0) unnamed_addr #8 align 2 {
  %2 = getelementptr inbounds nuw i8, ptr %0, i64 200
  %3 = load ptr, ptr %2, align 8, !tbaa !6
  %.not = icmp eq ptr %3, null
  br i1 %.not, label %7, label %4

4:                                                ; preds = %1
  %5 = getelementptr inbounds i8, ptr %0, i64 16
  %.sroa.4.0..sroa_idx = getelementptr inbounds i8, ptr %0, i64 24
  tail call void @llvm.memset.p0.i64(ptr noundef nonnull align 8 dereferenceable(154) %.sroa.4.0..sroa_idx, i8 0, i64 154, i1 false)
  %.sroa.51.0..sroa_idx = getelementptr inbounds i8, ptr %0, i64 180
  store i32 0, ptr %.sroa.51.0..sroa_idx, align 4
  %.sroa.6.0..sroa_idx = getelementptr inbounds i8, ptr %0, i64 184
  store i16 0, ptr %.sroa.6.0..sroa_idx, align 8
  %.sroa.7.0..sroa_idx = getelementptr inbounds i8, ptr %0, i64 186
  store i8 1, ptr %.sroa.7.0..sroa_idx, align 2
  store i8 0, ptr %3, align 1, !tbaa !29
  %6 = load ptr, ptr %2, align 8, !tbaa !6
  store ptr %6, ptr %5, align 8, !tbaa !30
  br label %7

7:                                                ; preds = %1, %4
  ret void
}